target datalayout = "e-m:e-p270:32:32-p271:32:32-p272:64:64-i64:64-i128:128-f80:128-n8:16:32:64-S128"
target triple = "x86_64-pc-linux-gnu"

%"class.std::vector" = type { %"struct.std::_Vector_base" }
%"struct.std::_Vector_base" = type { %"struct.std::_Vector_base<casadi::MX, std::allocator<casadi::MX>>::_Vector_impl" }
%"struct.std::_Vector_base<casadi::MX, std::allocator<casadi::MX>>::_Vector_impl" = type { %"struct.std::_Vector_base<casadi::MX, std::allocator<casadi::MX>>::_Vector_impl_data" }
%"struct.std::_Vector_base<casadi::MX, std::allocator<casadi::MX>>::_Vector_impl_data" = type { ptr, ptr, ptr }
%"class.casadi::SharedObject" = type { ptr }
%"struct.std::_Vector_base.71" = type { %"struct.std::_Vector_base<long long, std::allocator<long long>>::_Vector_impl" }
%"struct.std::_Vector_base<long long, std::allocator<long long>>::_Vector_impl" = type { %"struct.std::_Vector_base<long long, std::allocator<long long>>::_Vector_impl_data" }
%"struct.std::_Vector_base<long long, std::allocator<long long>>::_Vector_impl_data" = type { ptr, ptr, ptr }
%"class.casadi::MX" = type { %"class.casadi::SharedObject" }
%"class.std::vector.70" = type { %"struct.std::_Vector_base.71" }
%"struct.std::_Vector_base.82" = type { %"struct.std::_Vector_base<std::vector<casadi::MX>, std::allocator<std::vector<casadi::MX>>>::_Vector_impl" }
%"struct.std::_Vector_base<std::vector<casadi::MX>, std::allocator<std::vector<casadi::MX>>>::_Vector_impl" = type { %"struct.std::_Vector_base<std::vector<casadi::MX>, std::allocator<std::vector<casadi::MX>>>::_Vector_impl_data" }
%"struct.std::_Vector_base<std::vector<casadi::MX>, std::allocator<std::vector<casadi::MX>>>::_Vector_impl_data" = type { ptr, ptr, ptr }
%"struct.std::pair" = type { %"class.std::vector.70", %"class.std::vector.70" }

; Function Attrs: mustprogress uwtable
define linkonce_odr hidden void @_ZN6casadi17GenericExpressionINS_2MXEE4plusERKS1_S4_(ptr dead_on_unwind noalias writable sret(%"class.casadi::MX") align 8 %0, ptr noundef nonnull align 8 dereferenceable(8) %1, ptr noundef nonnull align 8 dereferenceable(8) %2) #4 comdat align 2 {
  %4 = alloca ptr, align 8
  %5 = alloca ptr, align 8
  %6 = alloca ptr, align 8
  store ptr %0, ptr %4, align 8
  store ptr %1, ptr %5, align 8
  store ptr %2, ptr %6, align 8
  %7 = load ptr, ptr %5, align 8
  %8 = load ptr, ptr %6, align 8
  call void @_ZN6casadi2MX6binaryExRKS0_S2_(ptr dead_on_unwind writable sret(%"class.casadi::MX") align 8 %0, i64 noundef 1, ptr noundef nonnull align 8 dereferenceable(8) %7, ptr noundef nonnull align 8 dereferenceable(8) %8)
  ret void
}

; Function Attrs: mustprogress uwtable
define linkonce_odr hidden noundef nonnull align 8 dereferenceable(8) ptr @_ZN6casadi2MXaSERKS0_(ptr noundef nonnull align 8 dereferenceable(8) %0, ptr noundef nonnull align 8 dereferenceable(8) %1) #4 comdat align 2 {
  %3 = alloca ptr, align 8
  %4 = alloca ptr, align 8
  store ptr %0, ptr %3, align 8
  store ptr %1, ptr %4, align 8
  %5 = load ptr, ptr %3, align 8
  %6 = load ptr, ptr %4, align 8
  %7 = call noundef nonnull align 8 dereferenceable(8) ptr @_ZN6casadi12SharedObjectaSERKS0_(ptr noundef nonnull align 8 dereferenceable(8) %5, ptr noundef nonnull align 8 dereferenceable(8) %6)
  ret ptr %5
}

; Function Attrs: mustprogress uwtable
define linkonce_odr hidden void @_ZN6casadiplERKNS_2MXES2_(ptr dead_on_unwind noalias writable sret(%"class.casadi::MX") align 8 %0, ptr noundef nonnull align 8 dereferenceable(8) %1, ptr noundef nonnull align 8 dereferenceable(8) %2) #4 comdat {
  %4 = alloca ptr, align 8
  %5 = alloca ptr, align 8
  %6 = alloca ptr, align 8
  store ptr %0, ptr %4, align 8
  store ptr %1, ptr %5, align 8
  store ptr %2, ptr %6, align 8
  %7 = load ptr, ptr %5, align 8
  %8 = load ptr, ptr %6, align 8
  call void @_ZN6casadi17GenericExpressionINS_2MXEE4plusERKS1_S4_(ptr dead_on_unwind writable sret(%"class.casadi::MX") align 8 %0, ptr noundef nonnull align 8 dereferenceable(8) %7, ptr noundef nonnull align 8 dereferenceable(8) %8)
  ret void
}

; Function Attrs: mustprogress nounwind uwtable
define linkonce_odr hidden noundef nonnull align 8 dereferenceable(8) ptr @_ZN6casadi17GenericExpressionINS_2MXEE4selfEv(ptr noundef nonnull align 1 dereferenceable(1) %0) #5 comdat align 2 {
  %2 = alloca ptr, align 8
  store ptr %0, ptr %2, align 8
  %3 = load ptr, ptr %2, align 8
  ret ptr %3
}

; Function Attrs: mustprogress uwtable
define linkonce_odr hidden noundef nonnull align 8 dereferenceable(8) ptr @_ZN6casadi17GenericExpressionINS_2MXEEpLERKS1_(ptr noundef nonnull align 1 dereferenceable(1) %0, ptr noundef nonnull align 8 dereferenceable(8) %1) #4 comdat align 2 personality ptr @__gxx_personality_v0 {
  %3 = alloca ptr, align 8
  %4 = alloca ptr, align 8
  %5 = alloca %"class.casadi::MX", align 8
  %6 = alloca ptr, align 8
  %7 = alloca i32, align 4
  store ptr %0, ptr %3, align 8
  store ptr %1, ptr %4, align 8
  %8 = load ptr, ptr %3, align 8
  %9 = call noundef nonnull align 8 dereferenceable(8) ptr @_ZN6casadi17GenericExpressionINS_2MXEE4selfEv(ptr noundef nonnull align 1 dereferenceable(1) %8)
  %10 = load ptr, ptr %4, align 8
  call void @_ZN6casadiplERKNS_2MXES2_(ptr dead_on_unwind writable sret(%"class.casadi::MX") align 8 %5, ptr noundef nonnull align 8 dereferenceable(8) %9, ptr noundef nonnull align 8 dereferenceable(8) %10)
  %11 = invoke noundef nonnull align 8 dereferenceable(8) ptr @_ZN6casadi17GenericExpressionINS_2MXEE4selfEv(ptr noundef nonnull align 1 dereferenceable(1) %8)
          to label %12 unwind label %15

12:                                               ; preds = %2
  %13 = invoke noundef nonnull align 8 dereferenceable(8) ptr @_ZN6casadi2MXaSERKS0_(ptr noundef nonnull align 8 dereferenceable(8) %11, ptr noundef nonnull align 8 dereferenceable(8) %5)
          to label %14 unwind label %15

14:                                               ; preds = %12
  call void @_ZN6casadi2MXD1Ev(ptr noundef nonnull align 8 dereferenceable(8) %5) #3
  ret ptr %13

15:                                               ; preds = %12, %2
  %16 = landingpad { ptr, i32 }
          cleanup
  %17 = extractvalue { ptr, i32 } %16, 0
  store ptr %17, ptr %6, align 8
  %18 = extractvalue { ptr, i32 } %16, 1
  store i32 %18, ptr %7, align 4
  call void @_ZN6casadi2MXD1Ev(ptr noundef nonnull align 8 dereferenceable(8) %5) #3
  br label %19

19:                                               ; preds = %15
  %20 = load ptr, ptr %6, align 8
  %21 = load i32, ptr %7, align 4
  %22 = insertvalue { ptr, i32 } poison, ptr %20, 0
  %23 = insertvalue { ptr, i32 } %22, i32 %21, 1
  resume { ptr, i32 } %23
}

; Function Attrs: mustprogress nounwind uwtable
define linkonce_odr hidden noundef nonnull align 8 dereferenceable(24) ptr @_ZNSt6vectorIS_IN6casadi2MXESaIS1_EESaIS3_EEixEm(ptr noundef nonnull align 8 dereferenceable(24) %0, i64 noundef %1) #5 comdat align 2 {
  %3 = alloca ptr, align 8
  %4 = alloca i64, align 8
  store ptr %0, ptr %3, align 8
  store i64 %1, ptr %4, align 8
  %5 = load ptr, ptr %3, align 8
  %6 = getelementptr inbounds %"struct.std::_Vector_base.82", ptr %5, i32 0, i32 0
  %7 = getelementptr inbounds %"struct.std::_Vector_base<std::vector<casadi::MX>, std::allocator<std::vector<casadi::MX>>>::_Vector_impl_data", ptr %6, i32 0, i32 0
  %8 = load ptr, ptr %7, align 8
  %9 = load i64, ptr %4, align 8
  %10 = getelementptr inbounds %"class.std::vector", ptr %8, i64 %9
  ret ptr %10
}

; Function Attrs: mustprogress nounwind uwtable
define linkonce_odr hidden noundef nonnull align 8 dereferenceable(8) ptr @_ZNSt6vectorIN6casadi2MXESaIS1_EEixEm(ptr noundef nonnull align 8 dereferenceable(24) %0, i64 noundef %1) #5 comdat align 2 {
  %3 = alloca ptr, align 8
  %4 = alloca i64, align 8
  store ptr %0, ptr %3, align 8
  store i64 %1, ptr %4, align 8
  %5 = load ptr, ptr %3, align 8
  %6 = getelementptr inbounds %"struct.std::_Vector_base", ptr %5, i32 0, i32 0
  %7 = getelementptr inbounds %"struct.std::_Vector_base<casadi::MX, std::allocator<casadi::MX>>::_Vector_impl_data", ptr %6, i32 0, i32 0
  %8 = load ptr, ptr %7, align 8
  %9 = load i64, ptr %4, align 8
  %10 = getelementptr inbounds %"class.casadi::MX", ptr %8, i64 %9
  ret ptr %10
}

; Function Attrs: mustprogress uwtable
define linkonce_odr hidden void @_ZN6casadi9diagsplitERKNS_2MXERKSt6vectorIxSaIxEES7_(ptr dead_on_unwind noalias writable sret(%"class.std::vector") align 8 %0, ptr noundef nonnull align 8 dereferenceable(8) %1, ptr noundef nonnull align 8 dereferenceable(24) %2, ptr noundef nonnull align 8 dereferenceable(24) %3) #4 comdat {
  %5 = alloca ptr, align 8
  %6 = alloca ptr, align 8
  %7 = alloca ptr, align 8
  %8 = alloca ptr, align 8
  store ptr %0, ptr %5, align 8
  store ptr %1, ptr %6, align 8
  store ptr %2, ptr %7, align 8
  store ptr %3, ptr %8, align 8
  %9 = load ptr, ptr %6, align 8
  %10 = load ptr, ptr %7, align 8
  %11 = load ptr, ptr %8, align 8
  call void @_ZN6casadi2MX9diagsplitERKS0_RKSt6vectorIxSaIxEES7_(ptr dead_on_unwind writable sret(%"class.std::vector") align 8 %0, ptr noundef nonnull align 8 dereferenceable(8) %9, ptr noundef nonnull align 8 dereferenceable(24) %10, ptr noundef nonnull align 8 dereferenceable(24) %11)
  ret void
}

; Function Attrs: mustprogress nounwind uwtable
define linkonce_odr hidden noundef nonnull align 8 dereferenceable(8) ptr @_ZNKSt6vectorIN6casadi2MXESaIS1_EEixEm(ptr noundef nonnull align 8 dereferenceable(24) %0, i64 noundef %1) #5 comdat align 2 {
  %3 = alloca ptr, align 8
  %4 = alloca i64, align 8
  store ptr %0, ptr %3, align 8
  store i64 %1, ptr %4, align 8
  %5 = load ptr, ptr %3, align 8
  %6 = getelementptr inbounds %"struct.std::_Vector_base", ptr %5, i32 0, i32 0
  %7 = getelementptr inbounds %"struct.std::_Vector_base<casadi::MX, std::allocator<casadi::MX>>::_Vector_impl_data", ptr %6, i32 0, i32 0
  %8 = load ptr, ptr %7, align 8
  %9 = load i64, ptr %4, align 8
  %10 = getelementptr inbounds %"class.casadi::MX", ptr %8, i64 %9
  ret ptr %10
}

; Function Attrs: mustprogress nounwind uwtable
define linkonce_odr hidden noundef nonnull align 8 dereferenceable(24) ptr @_ZNKSt6vectorIS_IN6casadi2MXESaIS1_EESaIS3_EEixEm(ptr noundef nonnull align 8 dereferenceable(24) %0, i64 noundef %1) #5 comdat align 2 {
  %3 = alloca ptr, align 8
  %4 = alloca i64, align 8
  store ptr %0, ptr %3, align 8
  store i64 %1, ptr %4, align 8
  %5 = load ptr, ptr %3, align 8
  %6 = getelementptr inbounds %"struct.std::_Vector_base.82", ptr %5, i32 0, i32 0
  %7 = getelementptr inbounds %"struct.std::_Vector_base<std::vector<casadi::MX>, std::allocator<std::vector<casadi::MX>>>::_Vector_impl_data", ptr %6, i32 0, i32 0
  %8 = load ptr, ptr %7, align 8
  %9 = load i64, ptr %4, align 8
  %10 = getelementptr inbounds %"class.std::vector", ptr %8, i64 %9
  ret ptr %10
}

; Function Attrs: mustprogress nounwind uwtable
define linkonce_odr hidden noundef i64 @_ZNKSt6vectorIS_IN6casadi2MXESaIS1_EESaIS3_EE4sizeEv(ptr noundef nonnull align 8 dereferenceable(24) %0) #5 comdat align 2 {
  %2 = alloca ptr, align 8
  store ptr %0, ptr %2, align 8
  %3 = load ptr, ptr %2, align 8
  %4 = getelementptr inbounds %"struct.std::_Vector_base.82", ptr %3, i32 0, i32 0
  %5 = getelementptr inbounds %"struct.std::_Vector_base<std::vector<casadi::MX>, std::allocator<std::vector<casadi::MX>>>::_Vector_impl_data", ptr %4, i32 0, i32 1
  %6 = load ptr, ptr %5, align 8
  %7 = getelementptr inbounds %"struct.std::_Vector_base.82", ptr %3, i32 0, i32 0
  %8 = getelementptr inbounds %"struct.std::_Vector_base<std::vector<casadi::MX>, std::allocator<std::vector<casadi::MX>>>::_Vector_impl_data", ptr %7, i32 0, i32 0
  %9 = load ptr, ptr %8, align 8
  %10 = ptrtoint ptr %6 to i64
  %11 = ptrtoint ptr %9 to i64
  %12 = sub i64 %10, %11
  %13 = sdiv exact i64 %12, 24
  ret i64 %13
}

; Function Attrs: mustprogress uwtable
define void @_ZNK6casadi7Diagcat10ad_reverseERKSt6vectorIS1_INS_2MXESaIS2_EESaIS4_EERS6_(ptr noundef nonnull align 8 dereferenceable(64) %0, ptr noundef nonnull align 8 dereferenceable(24) %1, ptr noundef nonnull align 8 dereferenceable(24) %2) unnamed_addr #4 align 2 personality ptr @__gxx_personality_v0 {
  %4 = alloca ptr, align 8
  %5 = alloca ptr, align 8
  %6 = alloca ptr, align 8
  %7 = alloca %"struct.std::pair", align 8
  %8 = alloca i64, align 8
  %9 = alloca i64, align 8
  %10 = alloca %"class.std::vector", align 8
  %11 = alloca ptr, align 8
  %12 = alloca i32, align 4
  %13 = alloca i64, align 8
  store ptr %0, ptr %4, align 8
  store ptr %1, ptr %5, align 8
  store ptr %2, ptr %6, align 8
  %14 = load ptr, ptr %4, align 8
  call void @_ZNK6casadi7Diagcat3offEv(ptr dead_on_unwind writable sret(%"struct.std::pair") align 8 %7, ptr noundef nonnull align 8 dereferenceable(64) %14)
  %15 = load ptr, ptr %5, align 8
  %16 = call noundef i64 @_ZNKSt6vectorIS_IN6casadi2MXESaIS1_EESaIS3_EE4sizeEv(ptr noundef nonnull align 8 dereferenceable(24) %15) #3
  store i64 %16, ptr %8, align 8
  store i64 0, ptr %9, align 8
  br label %17

17:                                               ; preds = %56, %3
  %18 = load i64, ptr %9, align 8
  %19 = load i64, ptr %8, align 8
  %20 = icmp slt i64 %18, %19
  br i1 %20, label %21, label %59

21:                                               ; preds = %17
  %22 = load ptr, ptr %5, align 8
  %23 = load i64, ptr %9, align 8
  %24 = call noundef nonnull align 8 dereferenceable(24) ptr @_ZNKSt6vectorIS_IN6casadi2MXESaIS1_EESaIS3_EEixEm(ptr noundef nonnull align 8 dereferenceable(24) %22, i64 noundef %23) #3
  %25 = call noundef nonnull align 8 dereferenceable(8) ptr @_ZNKSt6vectorIN6casadi2MXESaIS1_EEixEm(ptr noundef nonnull align 8 dereferenceable(24) %24, i64 noundef 0) #3
  %26 = getelementptr inbounds %"struct.std::pair", ptr %7, i32 0, i32 0
  %27 = getelementptr inbounds %"struct.std::pair", ptr %7, i32 0, i32 1
  invoke void @_ZN6casadi9diagsplitERKNS_2MXERKSt6vectorIxSaIxEES7_(ptr dead_on_unwind writable sret(%"class.std::vector") align 8 %10, ptr noundef nonnull align 8 dereferenceable(8) %25, ptr noundef nonnull align 8 dereferenceable(24) %26, ptr noundef nonnull align 8 dereferenceable(24) %27)
          to label %28 unwind label %47

28:                                               ; preds = %21
  store i64 0, ptr %13, align 8
  br label %29

29:                                               ; preds = %44, %28
  %30 = load i64, ptr %13, align 8
  %31 = invoke noundef i64 @_ZNK6casadi6MXNode5n_depEv(ptr noundef nonnull align 8 dereferenceable(64) %14)
          to label %32 unwind label %51

32:                                               ; preds = %29
  %33 = icmp slt i64 %30, %31
  br i1 %33, label %34, label %55

34:                                               ; preds = %32
  %35 = load i64, ptr %13, align 8
  %36 = call noundef nonnull align 8 dereferenceable(8) ptr @_ZNSt6vectorIN6casadi2MXESaIS1_EEixEm(ptr noundef nonnull align 8 dereferenceable(24) %10, i64 noundef %35) #3
  %37 = load ptr, ptr %6, align 8
  %38 = load i64, ptr %9, align 8
  %39 = call noundef nonnull align 8 dereferenceable(24) ptr @_ZNSt6vectorIS_IN6casadi2MXESaIS1_EESaIS3_EEixEm(ptr noundef nonnull align 8 dereferenceable(24) %37, i64 noundef %38) #3
  %40 = load i64, ptr %13, align 8
  %41 = call noundef nonnull align 8 dereferenceable(8) ptr @_ZNSt6vectorIN6casadi2MXESaIS1_EEixEm(ptr noundef nonnull align 8 dereferenceable(24) %39, i64 noundef %40) #3
  %42 = invoke noundef nonnull align 8 dereferenceable(8) ptr @_ZN6casadi17GenericExpressionINS_2MXEEpLERKS1_(ptr noundef nonnull align 1 dereferenceable(1) %41, ptr noundef nonnull align 8 dereferenceable(8) %36)
          to label %43 unwind label %51

43:                                               ; preds = %34
  br label %44

44:                                               ; preds = %43
  %45 = load i64, ptr %13, align 8
  %46 = add nsw i64 %45, 1
  store i64 %46, ptr %13, align 8
  br label %29, !llvm.loop !16

47:                                               ; preds = %21
  %48 = landingpad { ptr, i32 }
          cleanup
  %49 = extractvalue { ptr, i32 } %48, 0
  store ptr %49, ptr %11, align 8
  %50 = extractvalue { ptr, i32 } %48, 1
  store i32 %50, ptr %12, align 4
  br label %60

51:                                               ; preds = %34, %29
  %52 = landingpad { ptr, i32 }
          cleanup
  %53 = extractvalue { ptr, i32 } %52, 0
  store ptr %53, ptr %11, align 8
  %54 = extractvalue { ptr, i32 } %52, 1
  store i32 %54, ptr %12, align 4
  call void @_ZNSt6vectorIN6casadi2MXESaIS1_EED2Ev(ptr noundef nonnull align 8 dereferenceable(24) %10) #3
  br label %60

55:                                               ; preds = %32
  call void @_ZNSt6vectorIN6casadi2MXESaIS1_EED2Ev(ptr noundef nonnull align 8 dereferenceable(24) %10) #3
  br label %56

56:                                               ; preds = %55
  %57 = load i64, ptr %9, align 8
  %58 = add nsw i64 %57, 1
  store i64 %58, ptr %9, align 8
  br label %17, !llvm.loop !17

59:                                               ; preds = %17
  call void @_ZNSt4pairISt6vectorIxSaIxEES2_ED2Ev(ptr noundef nonnull align 8 dereferenceable(48) %7) #3
  ret void

60:                                               ; preds = %51, %47
  call void @_ZNSt4pairISt6vectorIxSaIxEES2_ED2Ev(ptr noundef nonnull align 8 dereferenceable(48) %7) #3
  br label %61

61:                                               ; preds = %60
  %62 = load ptr, ptr %11, align 8
  %63 = load i32, ptr %12, align 4
  %64 = insertvalue { ptr, i32 } poison, ptr %62, 0
  %65 = insertvalue { ptr, i32 } %64, i32 %63, 1
  resume { ptr, i32 } %65
}