; Function Attrs: mustprogress uwtable
define void @_ZNK6casadi7Diagcat10ad_reverseERKSt6vectorIS1_INS_2MXESaIS2_EESaIS4_EERS6_(ptr noundef nonnull align 8 dereferenceable(64) %0, ptr nocapture noundef nonnull readonly align 8 dereferenceable(24) %1, ptr nocapture noundef nonnull readonly align 8 dereferenceable(24) %2) unnamed_addr #3 align 2 personality ptr @__gxx_personality_v0 {
  %4 = alloca %"class.casadi::MX", align 8
  %5 = alloca %"struct.std::pair", align 8
  %6 = alloca %"class.std::vector", align 8
  call void @_ZNK6casadi7Diagcat3offEv(ptr dead_on_unwind nonnull writable sret(%"struct.std::pair") align 8 %5, ptr noundef nonnull align 8 dereferenceable(64) %0)
  %7 = getelementptr inbounds i8, ptr %1, i64 8
  %8 = load ptr, ptr %7, align 8
  %9 = load ptr, ptr %1, align 8
  %10 = ptrtoint ptr %8 to i64
  %11 = ptrtoint ptr %9 to i64
  %12 = sub i64 %10, %11
  %13 = icmp sgt i64 %12, 0
  br i1 %13, label %.lr.ph, label %._crit_edge

.lr.ph:                                           ; preds = %3
  %14 = udiv exact i64 %12, 24
  %15 = getelementptr inbounds i8, ptr %5, i64 24
  %16 = getelementptr inbounds i8, ptr %6, i64 8
  %17 = call i64 @llvm.umax.i64(i64 %14, i64 1)
  br label %18

18:                                               ; preds = %.lr.ph, %_ZNSt6vectorIN6casadi2MXESaIS1_EED2Ev.exit
  %.01619 = phi i64 [ 0, %.lr.ph ], [ %46, %_ZNSt6vectorIN6casadi2MXESaIS1_EED2Ev.exit ]
  %19 = load ptr, ptr %1, align 8
  %20 = getelementptr inbounds %"class.std::vector", ptr %19, i64 %.01619
  %21 = load ptr, ptr %20, align 8
  invoke void @_ZN6casadi2MX9diagsplitERKS0_RKSt6vectorIxSaIxEES7_(ptr dead_on_unwind nonnull writable sret(%"class.std::vector") align 8 %6, ptr noundef nonnull align 8 dereferenceable(8) %21, ptr noundef nonnull align 8 dereferenceable(24) %5, ptr noundef nonnull align 8 dereferenceable(24) %15)
          to label %_ZN6casadi9diagsplitERKNS_2MXERKSt6vectorIxSaIxEES7_.exit unwind label %37

_ZN6casadi9diagsplitERKNS_2MXERKSt6vectorIxSaIxEES7_.exit: ; preds = %18, %35
  %.0 = phi i64 [ %36, %35 ], [ 0, %18 ]
  %22 = invoke noundef i64 @_ZNK6casadi6MXNode5n_depEv(ptr noundef nonnull align 8 dereferenceable(64) %0)
          to label %23 unwind label %39

23:                                               ; preds = %_ZN6casadi9diagsplitERKNS_2MXERKSt6vectorIxSaIxEES7_.exit
  %24 = icmp slt i64 %.0, %22
  %25 = load ptr, ptr %6, align 8
  br i1 %24, label %26, label %41

26:                                               ; preds = %23
  %27 = getelementptr inbounds %"class.casadi::MX", ptr %25, i64 %.0
  %28 = load ptr, ptr %2, align 8
  %29 = getelementptr inbounds %"class.std::vector", ptr %28, i64 %.01619
  %30 = load ptr, ptr %29, align 8
  %31 = getelementptr inbounds %"class.casadi::MX", ptr %30, i64 %.0
  call void @llvm.lifetime.start.p0(i64 8, ptr nonnull %4)
  invoke void @_ZN6casadi2MX6binaryExRKS0_S2_(ptr dead_on_unwind nonnull writable sret(%"class.casadi::MX") align 8 %4, i64 noundef 1, ptr noundef nonnull align 8 dereferenceable(8) %31, ptr noundef nonnull align 8 dereferenceable(8) %27)
          to label %.noexc unwind label %39

.noexc:                                           ; preds = %26
  %32 = invoke noundef nonnull align 8 dereferenceable(8) ptr @_ZN6casadi12SharedObjectaSERKS0_(ptr noundef nonnull align 8 dereferenceable(8) %31, ptr noundef nonnull align 8 dereferenceable(8) %4)
          to label %35 unwind label %33

33:                                               ; preds = %.noexc
  %34 = landingpad { ptr, i32 }
          cleanup
  call void @_ZN6casadi2MXD1Ev(ptr noundef nonnull align 8 dereferenceable(8) %4) #17
  br label %.body

35:                                               ; preds = %.noexc
  call void @_ZN6casadi2MXD1Ev(ptr noundef nonnull align 8 dereferenceable(8) %4) #17
  call void @llvm.lifetime.end.p0(i64 8, ptr nonnull %4)
  %36 = add nuw nsw i64 %.0, 1
  br label %_ZN6casadi9diagsplitERKNS_2MXERKSt6vectorIxSaIxEES7_.exit, !llvm.loop !23

37:                                               ; preds = %18
  %38 = landingpad { ptr, i32 }
          cleanup
  br label %52

39:                                               ; preds = %26, %_ZN6casadi9diagsplitERKNS_2MXERKSt6vectorIxSaIxEES7_.exit
  %40 = landingpad { ptr, i32 }
          cleanup
  br label %.body

.body:                                            ; preds = %33, %39
  %eh.lpad-body = phi { ptr, i32 } [ %40, %39 ], [ %34, %33 ]
  call void @_ZNSt6vectorIN6casadi2MXESaIS1_EED2Ev(ptr noundef nonnull align 8 dereferenceable(24) %6) #17
  br label %52

41:                                               ; preds = %23
  %42 = load ptr, ptr %16, align 8
  %.not4.i.i.i.i = icmp eq ptr %25, %42
  br i1 %.not4.i.i.i.i, label %_ZSt8_DestroyIPN6casadi2MXES1_EvT_S3_RSaIT0_E.exit.i, label %.lr.ph.i.i.i.i

.lr.ph.i.i.i.i:                                   ; preds = %41, %.lr.ph.i.i.i.i
  %.05.i.i.i.i = phi ptr [ %43, %.lr.ph.i.i.i.i ], [ %25, %41 ]
  call void @_ZN6casadi2MXD1Ev(ptr noundef nonnull align 8 dereferenceable(8) %.05.i.i.i.i) #17
  %43 = getelementptr inbounds i8, ptr %.05.i.i.i.i, i64 8
  %.not.i.i.i.i = icmp eq ptr %43, %42
  br i1 %.not.i.i.i.i, label %_ZSt8_DestroyIPN6casadi2MXES1_EvT_S3_RSaIT0_E.exitthread-pre-split.i, label %.lr.ph.i.i.i.i, !llvm.loop !24

_ZSt8_DestroyIPN6casadi2MXES1_EvT_S3_RSaIT0_E.exitthread-pre-split.i: ; preds = %.lr.ph.i.i.i.i
  %.pr.i = load ptr, ptr %6, align 8
  br label %_ZSt8_DestroyIPN6casadi2MXES1_EvT_S3_RSaIT0_E.exit.i

_ZSt8_DestroyIPN6casadi2MXES1_EvT_S3_RSaIT0_E.exit.i: ; preds = %_ZSt8_DestroyIPN6casadi2MXES1_EvT_S3_RSaIT0_E.exitthread-pre-split.i, %41
  %44 = phi ptr [ %.pr.i, %_ZSt8_DestroyIPN6casadi2MXES1_EvT_S3_RSaIT0_E.exitthread-pre-split.i ], [ %25, %41 ]
  %.not.i.i.i = icmp eq ptr %44, null
  br i1 %.not.i.i.i, label %_ZNSt6vectorIN6casadi2MXESaIS1_EED2Ev.exit, label %45

45:                                               ; preds = %_ZSt8_DestroyIPN6casadi2MXES1_EvT_S3_RSaIT0_E.exit.i
  call void @_ZdlPv(ptr noundef nonnull %44) #21
  br label %_ZNSt6vectorIN6casadi2MXESaIS1_EED2Ev.exit

_ZNSt6vectorIN6casadi2MXESaIS1_EED2Ev.exit:       ; preds = %_ZSt8_DestroyIPN6casadi2MXES1_EvT_S3_RSaIT0_E.exit.i, %45
  %46 = add nuw nsw i64 %.01619, 1
  %exitcond.not = icmp eq i64 %46, %17
  br i1 %exitcond.not, label %._crit_edge, label %18, !llvm.loop !25

._crit_edge:                                      ; preds = %_ZNSt6vectorIN6casadi2MXESaIS1_EED2Ev.exit, %3
  %47 = getelementptr inbounds i8, ptr %5, i64 24
  %48 = load ptr, ptr %47, align 8
  %.not.i.i.i.i18 = icmp eq ptr %48, null
  br i1 %.not.i.i.i.i18, label %_ZNSt6vectorIxSaIxEED2Ev.exit.i, label %49

49:                                               ; preds = %._crit_edge
  call void @_ZdlPv(ptr noundef nonnull %48) #21
  br label %_ZNSt6vectorIxSaIxEED2Ev.exit.i

_ZNSt6vectorIxSaIxEED2Ev.exit.i:                  ; preds = %49, %._crit_edge
  %50 = load ptr, ptr %5, align 8
  %.not.i.i.i1.i = icmp eq ptr %50, null
  br i1 %.not.i.i.i1.i, label %_ZNSt4pairISt6vectorIxSaIxEES2_ED2Ev.exit, label %51

51:                                               ; preds = %_ZNSt6vectorIxSaIxEED2Ev.exit.i
  call void @_ZdlPv(ptr noundef nonnull %50) #21
  br label %_ZNSt4pairISt6vectorIxSaIxEES2_ED2Ev.exit

_ZNSt4pairISt6vectorIxSaIxEES2_ED2Ev.exit:        ; preds = %_ZNSt6vectorIxSaIxEED2Ev.exit.i, %51
  ret void

52:                                               ; preds = %.body, %37
  %.pn = phi { ptr, i32 } [ %eh.lpad-body, %.body ], [ %38, %37 ]
  call void @_ZNSt4pairISt6vectorIxSaIxEES2_ED2Ev(ptr noundef nonnull align 8 dereferenceable(48) %5) #17
  resume { ptr, i32 } %.pn
}